
main.elf:     file format elf32-avr

Sections:
Idx Name          Size      VMA       LMA       File off  Algn
  0 .text         00000340  00000000  00000000  00000074  2**1
                  CONTENTS, ALLOC, LOAD, READONLY, CODE
  1 .data         0000008a  00800060  00000340  000003b4  2**0
                  CONTENTS, ALLOC, LOAD, DATA
  2 .bss          00000006  008000ea  000003ca  0000043e  2**0
                  ALLOC
  3 .stab         00000b88  00000000  00000000  00000440  2**2
                  CONTENTS, READONLY, DEBUGGING
  4 .stabstr      0000085e  00000000  00000000  00000fc8  2**0
                  CONTENTS, READONLY, DEBUGGING
Disassembly of section .text:

00000000 <__vectors>:
   0:	12 c0       	rjmp	.+36     	; 0x26 <__ctors_end>
   2:	2c c0       	rjmp	.+88     	; 0x5c <__bad_interrupt>
   4:	2b c0       	rjmp	.+86     	; 0x5c <__bad_interrupt>
   6:	2a c0       	rjmp	.+84     	; 0x5c <__bad_interrupt>
   8:	29 c0       	rjmp	.+82     	; 0x5c <__bad_interrupt>
   a:	28 c0       	rjmp	.+80     	; 0x5c <__bad_interrupt>
   c:	27 c0       	rjmp	.+78     	; 0x5c <__bad_interrupt>
   e:	26 c0       	rjmp	.+76     	; 0x5c <__bad_interrupt>
  10:	25 c0       	rjmp	.+74     	; 0x5c <__bad_interrupt>
  12:	24 c0       	rjmp	.+72     	; 0x5c <__bad_interrupt>
  14:	23 c0       	rjmp	.+70     	; 0x5c <__bad_interrupt>
  16:	59 c0       	rjmp	.+178    	; 0xca <__vector_11>
  18:	21 c0       	rjmp	.+66     	; 0x5c <__bad_interrupt>
  1a:	20 c0       	rjmp	.+64     	; 0x5c <__bad_interrupt>
  1c:	1f c0       	rjmp	.+62     	; 0x5c <__bad_interrupt>
  1e:	1e c0       	rjmp	.+60     	; 0x5c <__bad_interrupt>
  20:	1d c0       	rjmp	.+58     	; 0x5c <__bad_interrupt>
  22:	1c c0       	rjmp	.+56     	; 0x5c <__bad_interrupt>
  24:	1b c0       	rjmp	.+54     	; 0x5c <__bad_interrupt>

00000026 <__ctors_end>:
  26:	11 24       	eor	r1, r1
  28:	1f be       	out	0x3f, r1	; 63
  2a:	cf e5       	ldi	r28, 0x5F	; 95
  2c:	d4 e0       	ldi	r29, 0x04	; 4
  2e:	de bf       	out	0x3e, r29	; 62
  30:	cd bf       	out	0x3d, r28	; 61

00000032 <__do_copy_data>:
  32:	10 e0       	ldi	r17, 0x00	; 0
  34:	a0 e6       	ldi	r26, 0x60	; 96
  36:	b0 e0       	ldi	r27, 0x00	; 0
  38:	e0 e4       	ldi	r30, 0x40	; 64
  3a:	f3 e0       	ldi	r31, 0x03	; 3
  3c:	02 c0       	rjmp	.+4      	; 0x42 <.do_copy_data_start>

0000003e <.do_copy_data_loop>:
  3e:	05 90       	lpm	r0, Z+
  40:	0d 92       	st	X+, r0

00000042 <.do_copy_data_start>:
  42:	aa 3e       	cpi	r26, 0xEA	; 234
  44:	b1 07       	cpc	r27, r17
  46:	d9 f7       	brne	.-10     	; 0x3e <__SP_H__>

00000048 <__do_clear_bss>:
  48:	10 e0       	ldi	r17, 0x00	; 0
  4a:	aa ee       	ldi	r26, 0xEA	; 234
  4c:	b0 e0       	ldi	r27, 0x00	; 0
  4e:	01 c0       	rjmp	.+2      	; 0x52 <.do_clear_bss_start>

00000050 <.do_clear_bss_loop>:
  50:	1d 92       	st	X+, r1

00000052 <.do_clear_bss_start>:
  52:	a0 3f       	cpi	r26, 0xF0	; 240
  54:	b1 07       	cpc	r27, r17
  56:	e1 f7       	brne	.-8      	; 0x50 <.do_clear_bss_loop>
  58:	02 d0       	rcall	.+4      	; 0x5e <main>
  5a:	70 c1       	rjmp	.+736    	; 0x33c <_exit>

0000005c <__bad_interrupt>:
  5c:	d1 cf       	rjmp	.-94     	; 0x0 <__heap_end>

0000005e <main>:
  5e:	80 e1       	ldi	r24, 0x10	; 16
  60:	90 e0       	ldi	r25, 0x00	; 0
  62:	0c d0       	rcall	.+24     	; 0x7c <systemUartInit>
  64:	80 e6       	ldi	r24, 0x60	; 96
  66:	90 e0       	ldi	r25, 0x00	; 0
  68:	34 d1       	rcall	.+616    	; 0x2d2 <puts>
  6a:	8c e6       	ldi	r24, 0x6C	; 108
  6c:	90 e0       	ldi	r25, 0x00	; 0
  6e:	31 d1       	rcall	.+610    	; 0x2d2 <puts>
  70:	84 e9       	ldi	r24, 0x94	; 148
  72:	90 e0       	ldi	r25, 0x00	; 0
  74:	2e d1       	rcall	.+604    	; 0x2d2 <puts>
  76:	a3 d0       	rcall	.+326    	; 0x1be <systemDcf39Receive>
  78:	1c d0       	rcall	.+56     	; 0xb2 <systemUartTransmit>
  7a:	fd cf       	rjmp	.-6      	; 0x76 <main+0x18>

0000007c <systemUartInit>:
  7c:	20 b5       	in	r18, 0x20	; 32
  7e:	28 60       	ori	r18, 0x08	; 8
  80:	20 bd       	out	0x20, r18	; 32
  82:	20 b5       	in	r18, 0x20	; 32
  84:	20 bd       	out	0x20, r18	; 32
  86:	20 b5       	in	r18, 0x20	; 32
  88:	24 60       	ori	r18, 0x04	; 4
  8a:	20 bd       	out	0x20, r18	; 32
  8c:	20 b5       	in	r18, 0x20	; 32
  8e:	22 60       	ori	r18, 0x02	; 2
  90:	20 bd       	out	0x20, r18	; 32
  92:	20 b5       	in	r18, 0x20	; 32
  94:	20 bd       	out	0x20, r18	; 32
  96:	20 b5       	in	r18, 0x20	; 32
  98:	20 bd       	out	0x20, r18	; 32
  9a:	90 bd       	out	0x20, r25	; 32
  9c:	89 b9       	out	0x09, r24	; 9
  9e:	53 9a       	sbi	0x0a, 3	; 10
  a0:	54 9a       	sbi	0x0a, 4	; 10
  a2:	59 9a       	sbi	0x0b, 1	; 11
  a4:	8b ed       	ldi	r24, 0xDB	; 219
  a6:	90 e0       	ldi	r25, 0x00	; 0
  a8:	90 93 ed 00 	sts	0x00ED, r25
  ac:	80 93 ec 00 	sts	0x00EC, r24
  b0:	08 95       	ret

000000b2 <systemUartTransmit>:
  b2:	e1 e0       	ldi	r30, 0x01	; 1
  b4:	f0 e0       	ldi	r31, 0x00	; 0
  b6:	31 97       	sbiw	r30, 0x01	; 1
  b8:	f1 f7       	brne	.-4      	; 0xb6 <systemUartTransmit+0x4>
  ba:	5d 9b       	sbis	0x0b, 5	; 11
  bc:	fe cf       	rjmp	.-4      	; 0xba <systemUartTransmit+0x8>
  be:	8c b9       	out	0x0c, r24	; 12
  c0:	08 95       	ret

000000c2 <systemUartReceive>:
  c2:	5f 9b       	sbis	0x0b, 7	; 11
  c4:	fe cf       	rjmp	.-4      	; 0xc2 <systemUartReceive>
  c6:	8c b1       	in	r24, 0x0c	; 12
  c8:	08 95       	ret

000000ca <__vector_11>:
  ca:	1f 92       	push	r1
  cc:	0f 92       	push	r0
  ce:	0f b6       	in	r0, 0x3f	; 63
  d0:	0f 92       	push	r0
  d2:	11 24       	eor	r1, r1
  d4:	0f 90       	pop	r0
  d6:	0f be       	out	0x3f, r0	; 63
  d8:	0f 90       	pop	r0
  da:	1f 90       	pop	r1
  dc:	18 95       	reti

000000de <systemUartPutchar>:
  de:	e1 e0       	ldi	r30, 0x01	; 1
  e0:	f0 e0       	ldi	r31, 0x00	; 0
  e2:	31 97       	sbiw	r30, 0x01	; 1
  e4:	f1 f7       	brne	.-4      	; 0xe2 <systemUartPutchar+0x4>
  e6:	5d 9b       	sbis	0x0b, 5	; 11
  e8:	fe cf       	rjmp	.-4      	; 0xe6 <systemUartPutchar+0x8>
  ea:	8c b9       	out	0x0c, r24	; 12
  ec:	80 e0       	ldi	r24, 0x00	; 0
  ee:	08 95       	ret

000000f0 <systemDelay1s>:
  f0:	20 e4       	ldi	r18, 0x40	; 64
  f2:	3c e9       	ldi	r19, 0x9C	; 156
  f4:	06 c0       	rjmp	.+12     	; 0x102 <systemDelay1s+0x12>
  f6:	f9 01       	movw	r30, r18
  f8:	31 97       	sbiw	r30, 0x01	; 1
  fa:	f1 f7       	brne	.-4      	; 0xf8 <systemDelay1s+0x8>
  fc:	91 50       	subi	r25, 0x01	; 1
  fe:	d8 f7       	brcc	.-10     	; 0xf6 <systemDelay1s+0x6>
 100:	81 50       	subi	r24, 0x01	; 1
 102:	88 23       	and	r24, r24
 104:	11 f0       	breq	.+4      	; 0x10a <systemDelay1s+0x1a>
 106:	94 e6       	ldi	r25, 0x64	; 100
 108:	f9 cf       	rjmp	.-14     	; 0xfc <systemDelay1s+0xc>
 10a:	08 95       	ret

0000010c <systemDelay10ms>:
 10c:	20 e4       	ldi	r18, 0x40	; 64
 10e:	3c e9       	ldi	r19, 0x9C	; 156
 110:	04 c0       	rjmp	.+8      	; 0x11a <systemDelay10ms+0xe>
 112:	f9 01       	movw	r30, r18
 114:	31 97       	sbiw	r30, 0x01	; 1
 116:	f1 f7       	brne	.-4      	; 0x114 <systemDelay10ms+0x8>
 118:	81 50       	subi	r24, 0x01	; 1
 11a:	88 23       	and	r24, r24
 11c:	d1 f7       	brne	.-12     	; 0x112 <systemDelay10ms+0x6>
 11e:	08 95       	ret

00000120 <systemDelay100ms>:
 120:	20 e4       	ldi	r18, 0x40	; 64
 122:	3c e9       	ldi	r19, 0x9C	; 156
 124:	06 c0       	rjmp	.+12     	; 0x132 <systemDelay100ms+0x12>
 126:	f9 01       	movw	r30, r18
 128:	31 97       	sbiw	r30, 0x01	; 1
 12a:	f1 f7       	brne	.-4      	; 0x128 <systemDelay100ms+0x8>
 12c:	91 50       	subi	r25, 0x01	; 1
 12e:	d8 f7       	brcc	.-10     	; 0x126 <systemDelay100ms+0x6>
 130:	81 50       	subi	r24, 0x01	; 1
 132:	88 23       	and	r24, r24
 134:	11 f0       	breq	.+4      	; 0x13a <systemDelay100ms+0x1a>
 136:	9a e0       	ldi	r25, 0x0A	; 10
 138:	f9 cf       	rjmp	.-14     	; 0x12c <systemDelay100ms+0xc>
 13a:	08 95       	ret

0000013c <systemDelay1ms>:
 13c:	20 ea       	ldi	r18, 0xA0	; 160
 13e:	3f e0       	ldi	r19, 0x0F	; 15
 140:	04 c0       	rjmp	.+8      	; 0x14a <systemDelay1ms+0xe>
 142:	f9 01       	movw	r30, r18
 144:	31 97       	sbiw	r30, 0x01	; 1
 146:	f1 f7       	brne	.-4      	; 0x144 <systemDelay1ms+0x8>
 148:	81 50       	subi	r24, 0x01	; 1
 14a:	88 23       	and	r24, r24
 14c:	d1 f7       	brne	.-12     	; 0x142 <systemDelay1ms+0x6>
 14e:	08 95       	ret

00000150 <systemDelay10us>:
 150:	25 e3       	ldi	r18, 0x35	; 53
 152:	04 c0       	rjmp	.+8      	; 0x15c <systemDelay10us+0xc>
 154:	92 2f       	mov	r25, r18
 156:	9a 95       	dec	r25
 158:	f1 f7       	brne	.-4      	; 0x156 <systemDelay10us+0x6>
 15a:	81 50       	subi	r24, 0x01	; 1
 15c:	88 23       	and	r24, r24
 15e:	d1 f7       	brne	.-12     	; 0x154 <systemDelay10us+0x4>
 160:	08 95       	ret

00000162 <systemDelay100us>:
 162:	35 e3       	ldi	r19, 0x35	; 53
 164:	06 c0       	rjmp	.+12     	; 0x172 <systemDelay100us+0x10>
 166:	23 2f       	mov	r18, r19
 168:	2a 95       	dec	r18
 16a:	f1 f7       	brne	.-4      	; 0x168 <systemDelay100us+0x6>
 16c:	91 50       	subi	r25, 0x01	; 1
 16e:	d8 f7       	brcc	.-10     	; 0x166 <systemDelay100us+0x4>
 170:	81 50       	subi	r24, 0x01	; 1
 172:	88 23       	and	r24, r24
 174:	11 f0       	breq	.+4      	; 0x17a <systemDelay100us+0x18>
 176:	9a e0       	ldi	r25, 0x0A	; 10
 178:	f9 cf       	rjmp	.-14     	; 0x16c <systemDelay100us+0xa>
 17a:	08 95       	ret

0000017c <systemDelay1us>:
 17c:	25 e0       	ldi	r18, 0x05	; 5
 17e:	04 c0       	rjmp	.+8      	; 0x188 <systemDelay1us+0xc>
 180:	92 2f       	mov	r25, r18
 182:	9a 95       	dec	r25
 184:	f1 f7       	brne	.-4      	; 0x182 <systemDelay1us+0x6>
 186:	81 50       	subi	r24, 0x01	; 1
 188:	88 23       	and	r24, r24
 18a:	d1 f7       	brne	.-12     	; 0x180 <systemDelay1us+0x4>
 18c:	08 95       	ret

0000018e <systemDelay05us>:
 18e:	22 e0       	ldi	r18, 0x02	; 2
 190:	04 c0       	rjmp	.+8      	; 0x19a <systemDelay05us+0xc>
 192:	92 2f       	mov	r25, r18
 194:	9a 95       	dec	r25
 196:	f1 f7       	brne	.-4      	; 0x194 <systemDelay05us+0x6>
 198:	81 50       	subi	r24, 0x01	; 1
 19a:	88 23       	and	r24, r24
 19c:	d1 f7       	brne	.-12     	; 0x192 <systemDelay05us+0x4>
 19e:	08 95       	ret

000001a0 <systemDelay01us>:
 1a0:	21 e0       	ldi	r18, 0x01	; 1
 1a2:	04 c0       	rjmp	.+8      	; 0x1ac <systemDelay01us+0xc>
 1a4:	92 2f       	mov	r25, r18
 1a6:	9a 95       	dec	r25
 1a8:	f1 f7       	brne	.-4      	; 0x1a6 <systemDelay01us+0x6>
 1aa:	81 50       	subi	r24, 0x01	; 1
 1ac:	88 23       	and	r24, r24
 1ae:	d1 f7       	brne	.-12     	; 0x1a4 <systemDelay01us+0x4>
 1b0:	08 95       	ret

000001b2 <systemDelay16>:
 1b2:	01 97       	sbiw	r24, 0x01	; 1
 1b4:	f1 f7       	brne	.-4      	; 0x1b2 <systemDelay16>
 1b6:	08 95       	ret

000001b8 <systemDelay8>:
 1b8:	8a 95       	dec	r24
 1ba:	f1 f7       	brne	.-4      	; 0x1b8 <systemDelay8>
 1bc:	08 95       	ret

000001be <systemDcf39Receive>:
 1be:	5f 92       	push	r5
 1c0:	6f 92       	push	r6
 1c2:	7f 92       	push	r7
 1c4:	8f 92       	push	r8
 1c6:	9f 92       	push	r9
 1c8:	af 92       	push	r10
 1ca:	bf 92       	push	r11
 1cc:	cf 92       	push	r12
 1ce:	df 92       	push	r13
 1d0:	ef 92       	push	r14
 1d2:	ff 92       	push	r15
 1d4:	0f 93       	push	r16
 1d6:	1f 93       	push	r17
 1d8:	82 9b       	sbis	0x10, 2	; 16
 1da:	fe cf       	rjmp	.-4      	; 0x1d8 <systemDcf39Receive+0x1a>
 1dc:	82 e3       	ldi	r24, 0x32	; 50
 1de:	c1 df       	rcall	.-126    	; 0x162 <systemDelay100us>
 1e0:	89 e1       	ldi	r24, 0x19	; 25
 1e2:	bf df       	rcall	.-130    	; 0x162 <systemDelay100us>
 1e4:	10 b3       	in	r17, 0x10	; 16
 1e6:	82 e3       	ldi	r24, 0x32	; 50
 1e8:	bc df       	rcall	.-136    	; 0x162 <systemDelay100us>
 1ea:	c0 b2       	in	r12, 0x10	; 16
 1ec:	82 e3       	ldi	r24, 0x32	; 50
 1ee:	b9 df       	rcall	.-142    	; 0x162 <systemDelay100us>
 1f0:	50 b2       	in	r5, 0x10	; 16
 1f2:	82 e3       	ldi	r24, 0x32	; 50
 1f4:	b6 df       	rcall	.-148    	; 0x162 <systemDelay100us>
 1f6:	e0 b2       	in	r14, 0x10	; 16
 1f8:	82 e3       	ldi	r24, 0x32	; 50
 1fa:	b3 df       	rcall	.-154    	; 0x162 <systemDelay100us>
 1fc:	a0 b2       	in	r10, 0x10	; 16
 1fe:	82 e3       	ldi	r24, 0x32	; 50
 200:	b0 df       	rcall	.-160    	; 0x162 <systemDelay100us>
 202:	80 b2       	in	r8, 0x10	; 16
 204:	82 e3       	ldi	r24, 0x32	; 50
 206:	ad df       	rcall	.-166    	; 0x162 <systemDelay100us>
 208:	60 b2       	in	r6, 0x10	; 16
 20a:	82 e3       	ldi	r24, 0x32	; 50
 20c:	aa df       	rcall	.-172    	; 0x162 <systemDelay100us>
 20e:	00 b3       	in	r16, 0x10	; 16
 210:	82 e3       	ldi	r24, 0x32	; 50
 212:	a7 df       	rcall	.-178    	; 0x162 <systemDelay100us>
 214:	82 e3       	ldi	r24, 0x32	; 50
 216:	a5 df       	rcall	.-182    	; 0x162 <systemDelay100us>
 218:	81 2f       	mov	r24, r17
 21a:	90 e0       	ldi	r25, 0x00	; 0
 21c:	80 95       	com	r24
 21e:	90 95       	com	r25
 220:	95 95       	asr	r25
 222:	87 95       	ror	r24
 224:	95 95       	asr	r25
 226:	87 95       	ror	r24
 228:	81 70       	andi	r24, 0x01	; 1
 22a:	10 e0       	ldi	r17, 0x00	; 0
 22c:	00 95       	com	r16
 22e:	10 95       	com	r17
 230:	15 95       	asr	r17
 232:	07 95       	ror	r16
 234:	15 95       	asr	r17
 236:	07 95       	ror	r16
 238:	16 95       	lsr	r17
 23a:	10 2f       	mov	r17, r16
 23c:	00 27       	eor	r16, r16
 23e:	17 95       	ror	r17
 240:	07 95       	ror	r16
 242:	80 2b       	or	r24, r16
 244:	50 94       	com	r5
 246:	94 e0       	ldi	r25, 0x04	; 4
 248:	59 22       	and	r5, r25
 24a:	85 29       	or	r24, r5
 24c:	dd 24       	eor	r13, r13
 24e:	c0 94       	com	r12
 250:	d0 94       	com	r13
 252:	d6 94       	lsr	r13
 254:	c7 94       	ror	r12
 256:	92 e0       	ldi	r25, 0x02	; 2
 258:	c9 22       	and	r12, r25
 25a:	dd 24       	eor	r13, r13
 25c:	8c 29       	or	r24, r12
 25e:	ff 24       	eor	r15, r15
 260:	e0 94       	com	r14
 262:	f0 94       	com	r15
 264:	ee 0c       	add	r14, r14
 266:	ff 1c       	adc	r15, r15
 268:	98 e0       	ldi	r25, 0x08	; 8
 26a:	e9 22       	and	r14, r25
 26c:	ff 24       	eor	r15, r15
 26e:	8e 29       	or	r24, r14
 270:	bb 24       	eor	r11, r11
 272:	a0 94       	com	r10
 274:	b0 94       	com	r11
 276:	aa 0c       	add	r10, r10
 278:	bb 1c       	adc	r11, r11
 27a:	aa 0c       	add	r10, r10
 27c:	bb 1c       	adc	r11, r11
 27e:	90 e1       	ldi	r25, 0x10	; 16
 280:	a9 22       	and	r10, r25
 282:	bb 24       	eor	r11, r11
 284:	8a 29       	or	r24, r10
 286:	99 24       	eor	r9, r9
 288:	80 94       	com	r8
 28a:	90 94       	com	r9
 28c:	23 e0       	ldi	r18, 0x03	; 3
 28e:	88 0c       	add	r8, r8
 290:	99 1c       	adc	r9, r9
 292:	2a 95       	dec	r18
 294:	e1 f7       	brne	.-8      	; 0x28e <systemDcf39Receive+0xd0>
 296:	90 e2       	ldi	r25, 0x20	; 32
 298:	89 22       	and	r8, r25
 29a:	99 24       	eor	r9, r9
 29c:	88 29       	or	r24, r8
 29e:	77 24       	eor	r7, r7
 2a0:	60 94       	com	r6
 2a2:	70 94       	com	r7
 2a4:	94 e0       	ldi	r25, 0x04	; 4
 2a6:	66 0c       	add	r6, r6
 2a8:	77 1c       	adc	r7, r7
 2aa:	9a 95       	dec	r25
 2ac:	e1 f7       	brne	.-8      	; 0x2a6 <systemDcf39Receive+0xe8>
 2ae:	90 e4       	ldi	r25, 0x40	; 64
 2b0:	69 22       	and	r6, r25
 2b2:	77 24       	eor	r7, r7
 2b4:	86 29       	or	r24, r6
 2b6:	1f 91       	pop	r17
 2b8:	0f 91       	pop	r16
 2ba:	ff 90       	pop	r15
 2bc:	ef 90       	pop	r14
 2be:	df 90       	pop	r13
 2c0:	cf 90       	pop	r12
 2c2:	bf 90       	pop	r11
 2c4:	af 90       	pop	r10
 2c6:	9f 90       	pop	r9
 2c8:	8f 90       	pop	r8
 2ca:	7f 90       	pop	r7
 2cc:	6f 90       	pop	r6
 2ce:	5f 90       	pop	r5
 2d0:	08 95       	ret

000002d2 <puts>:
 2d2:	0f 93       	push	r16
 2d4:	1f 93       	push	r17
 2d6:	cf 93       	push	r28
 2d8:	df 93       	push	r29
 2da:	8c 01       	movw	r16, r24
 2dc:	e0 91 ec 00 	lds	r30, 0x00EC
 2e0:	f0 91 ed 00 	lds	r31, 0x00ED
 2e4:	83 81       	ldd	r24, Z+3	; 0x03
 2e6:	81 ff       	sbrs	r24, 1
 2e8:	21 c0       	rjmp	.+66     	; 0x32c <puts+0x5a>
 2ea:	c0 e0       	ldi	r28, 0x00	; 0
 2ec:	d0 e0       	ldi	r29, 0x00	; 0
 2ee:	0d c0       	rjmp	.+26     	; 0x30a <puts+0x38>
 2f0:	e0 91 ec 00 	lds	r30, 0x00EC
 2f4:	f0 91 ed 00 	lds	r31, 0x00ED
 2f8:	20 85       	ldd	r18, Z+8	; 0x08
 2fa:	31 85       	ldd	r19, Z+9	; 0x09
 2fc:	bf 01       	movw	r22, r30
 2fe:	f9 01       	movw	r30, r18
 300:	09 95       	icall
 302:	89 2b       	or	r24, r25
 304:	11 f0       	breq	.+4      	; 0x30a <puts+0x38>
 306:	cf ef       	ldi	r28, 0xFF	; 255
 308:	df ef       	ldi	r29, 0xFF	; 255
 30a:	f8 01       	movw	r30, r16
 30c:	81 91       	ld	r24, Z+
 30e:	8f 01       	movw	r16, r30
 310:	88 23       	and	r24, r24
 312:	71 f7       	brne	.-36     	; 0x2f0 <puts+0x1e>
 314:	e0 91 ec 00 	lds	r30, 0x00EC
 318:	f0 91 ed 00 	lds	r31, 0x00ED
 31c:	20 85       	ldd	r18, Z+8	; 0x08
 31e:	31 85       	ldd	r19, Z+9	; 0x09
 320:	8a e0       	ldi	r24, 0x0A	; 10
 322:	bf 01       	movw	r22, r30
 324:	f9 01       	movw	r30, r18
 326:	09 95       	icall
 328:	89 2b       	or	r24, r25
 32a:	11 f0       	breq	.+4      	; 0x330 <puts+0x5e>
 32c:	cf ef       	ldi	r28, 0xFF	; 255
 32e:	df ef       	ldi	r29, 0xFF	; 255
 330:	ce 01       	movw	r24, r28
 332:	df 91       	pop	r29
 334:	cf 91       	pop	r28
 336:	1f 91       	pop	r17
 338:	0f 91       	pop	r16
 33a:	08 95       	ret

0000033c <_exit>:
 33c:	f8 94       	cli

0000033e <__stop_program>:
 33e:	ff cf       	rjmp	.-2      	; 0x33e <__stop_program>
